ccopy_reg
_reconstructor
p0
(cgoogle.oauth2.credentials
Credentials
p1
c__builtin__
object
p2
Ntp3
Rp4
(dp5
S'_token_uri'
p6
Vhttps://oauth2.googleapis.com/token
p7
sS'_client_secret'
p8
VzgsrpGKRo0VOJKhOQT9-WBly
p9
sS'_id_token'
p10
NsS'token'
p11
Vya29.GltgB6VzMaG_zUdHfd_LFjRGqQALz5TKPJe9-h672NFD0_VXFWkDa5iUe6EbyvoEY9XGbp_WV7aniPJFyHH9Db39LXEa4w13KNYg_IFP7uy7QPFsT8hfsjRJA8qi
p12
sS'_refresh_token'
p13
V1/jfIL4rMmBh0mGHK8P_0fbHKk_y3EG3a16g_f_LkfLXY
p14
sS'_scopes'
p15
(lp16
S'https://www.googleapis.com/auth/calendar.readonly'
p17
asS'_client_id'
p18
V870975904657-gcm42mr128vgotqcs2v2vro0shb65hs1.apps.googleusercontent.com
p19
sS'expiry'
p20
cdatetime
datetime
p21
(S'\x07\xe3\x08\n\x15\x161\x01\x072'
p22
tp23
Rp24
sb.